target datalayout = "e-m:e-p270:32:32-p271:32:32-p272:64:64-i64:64-i128:128-f80:128-n8:16:32:64-S128"
target triple = "x86_64-pc-linux-gnu"

%"class.llvm::StringRef" = type { ptr, i64 }
%"class.llvm::pdb::NativeRawSymbol" = type { %"class.llvm::pdb::IPDBRawSymbol", ptr, i32, i32 }
%"class.llvm::pdb::IPDBRawSymbol" = type { ptr }
%"class.std::__cxx11::basic_string" = type { %"struct.std::__cxx11::basic_string<char>::_Alloc_hider", i64, %union.anon.45 }
%"struct.std::__cxx11::basic_string<char>::_Alloc_hider" = type { ptr }
%union.anon.45 = type { i64, [8 x i8] }

@.str = private unnamed_addr constant [16 x i8] c"lexicalParentId\00", align 1
@.str.1 = private unnamed_addr constant [12 x i8] c"libraryName\00", align 1
@.str.2 = private unnamed_addr constant [5 x i8] c"name\00", align 1
@.str.3 = private unnamed_addr constant [23 x i8] c"editAndContinueEnabled\00", align 1

; Function Attrs: mustprogress nounwind uwtable
define linkonce_odr hidden noundef i64 @_ZNSt11char_traitsIcE6lengthEPKc(ptr noundef %0) #0 comdat align 2 {
  %2 = alloca ptr, align 8
  store ptr %0, ptr %2, align 8
  %3 = load ptr, ptr %2, align 8
  %4 = call i64 @strlen(ptr noundef %3) #5
  ret i64 %4
}

; Function Attrs: mustprogress nounwind uwtable
define linkonce_odr hidden void @_ZN4llvm9StringRefC2EPKc(ptr noundef nonnull align 8 dereferenceable(16) %0, ptr noundef %1) unnamed_addr #0 comdat align 2 {
  %3 = alloca ptr, align 8
  %4 = alloca ptr, align 8
  store ptr %0, ptr %3, align 8
  store ptr %1, ptr %4, align 8
  %5 = load ptr, ptr %3, align 8
  %6 = getelementptr inbounds nuw %"class.llvm::StringRef", ptr %5, i32 0, i32 0
  %7 = load ptr, ptr %4, align 8
  store ptr %7, ptr %6, align 8
  %8 = getelementptr inbounds nuw %"class.llvm::StringRef", ptr %5, i32 0, i32 1
  %9 = load ptr, ptr %4, align 8
  %10 = icmp ne ptr %9, null
  br i1 %10, label %11, label %14

11:                                               ; preds = %2
  %12 = load ptr, ptr %4, align 8
  %13 = call noundef i64 @_ZNSt11char_traitsIcE6lengthEPKc(ptr noundef %12)
  br label %15

14:                                               ; preds = %2
  br label %15

15:                                               ; preds = %14, %11
  %16 = phi i64 [ %13, %11 ], [ 0, %14 ]
  store i64 %16, ptr %8, align 8
  ret void
}

; Function Attrs: mustprogress nounwind uwtable
define dso_local void @_ZNK4llvm3pdb21NativeCompilandSymbol4dumpERNS_11raw_ostreamEiNS0_16PdbSymbolIdFieldES4_(ptr noundef nonnull align 8 dereferenceable(64) %0, ptr noundef nonnull align 8 dereferenceable(48) %1, i32 noundef %2, i32 noundef %3, i32 noundef %4) unnamed_addr #0 align 2 {
  %6 = alloca ptr, align 8
  %7 = alloca ptr, align 8
  %8 = alloca i32, align 4
  %9 = alloca i32, align 4
  %10 = alloca i32, align 4
  %11 = alloca %"class.llvm::StringRef", align 8
  %12 = alloca %"class.llvm::StringRef", align 8
  %13 = alloca %"class.std::__cxx11::basic_string", align 8
  %14 = alloca %"class.llvm::StringRef", align 8
  %15 = alloca %"class.std::__cxx11::basic_string", align 8
  %16 = alloca %"class.llvm::StringRef", align 8
  store ptr %0, ptr %6, align 8
  store ptr %1, ptr %7, align 8
  store i32 %2, ptr %8, align 4
  store i32 %3, ptr %9, align 4
  store i32 %4, ptr %10, align 4
  %17 = load ptr, ptr %6, align 8
  %18 = load ptr, ptr %7, align 8
  %19 = load i32, ptr %8, align 4
  %20 = load i32, ptr %9, align 4
  %21 = load i32, ptr %10, align 4
  call void @_ZNK4llvm3pdb15NativeRawSymbol4dumpERNS_11raw_ostreamEiNS0_16PdbSymbolIdFieldES4_(ptr noundef nonnull align 8 dereferenceable(24) %17, ptr noundef nonnull align 8 dereferenceable(48) %18, i32 noundef %19, i32 noundef %20, i32 noundef %21)
  %22 = load ptr, ptr %7, align 8
  call void @_ZN4llvm9StringRefC2EPKc(ptr noundef nonnull align 8 dereferenceable(16) %11, ptr noundef @.str)
  %23 = load i32, ptr %8, align 4
  %24 = getelementptr inbounds nuw %"class.llvm::pdb::NativeRawSymbol", ptr %17, i32 0, i32 1
  %25 = load ptr, ptr %24, align 8
  %26 = load i32, ptr %9, align 4
  %27 = load i32, ptr %10, align 4
  %28 = getelementptr inbounds nuw { ptr, i64 }, ptr %11, i32 0, i32 0
  %29 = load ptr, ptr %28, align 8
  %30 = getelementptr inbounds nuw { ptr, i64 }, ptr %11, i32 0, i32 1
  %31 = load i64, ptr %30, align 8
  call void @_ZN4llvm3pdb17dumpSymbolIdFieldERNS_11raw_ostreamENS_9StringRefEjiRKNS0_11IPDBSessionENS0_16PdbSymbolIdFieldES7_S7_(ptr noundef nonnull align 8 dereferenceable(48) %22, ptr %29, i64 %31, i32 noundef 0, i32 noundef %23, ptr noundef nonnull align 8 dereferenceable(8) %25, i32 noundef 2, i32 noundef %26, i32 noundef %27)
  %32 = load ptr, ptr %7, align 8
  call void @_ZN4llvm9StringRefC2EPKc(ptr noundef nonnull align 8 dereferenceable(16) %12, ptr noundef @.str.1)
  %33 = load ptr, ptr %17, align 8
  %34 = getelementptr inbounds ptr, ptr %33, i64 35
  %35 = load ptr, ptr %34, align 8
  call void %35(ptr dead_on_unwind writable sret(%"class.std::__cxx11::basic_string") align 8 %13, ptr noundef nonnull align 8 dereferenceable(64) %17)
  %36 = load i32, ptr %8, align 4
  %37 = getelementptr inbounds nuw { ptr, i64 }, ptr %12, i32 0, i32 0
  %38 = load ptr, ptr %37, align 8
  %39 = getelementptr inbounds nuw { ptr, i64 }, ptr %12, i32 0, i32 1
  %40 = load i64, ptr %39, align 8
  call void @_ZN4llvm3pdb15dumpSymbolFieldINSt7__cxx1112basic_stringIcSt11char_traitsIcESaIcEEEEEvRNS_11raw_ostreamENS_9StringRefET_i(ptr noundef nonnull align 8 dereferenceable(48) %32, ptr %38, i64 %40, ptr noundef %13, i32 noundef %36)
  call void @_ZNSt7__cxx1112basic_stringIcSt11char_traitsIcESaIcEED1Ev(ptr noundef nonnull align 8 dereferenceable(32) %13) #5
  %41 = load ptr, ptr %7, align 8
  call void @_ZN4llvm9StringRefC2EPKc(ptr noundef nonnull align 8 dereferenceable(16) %14, ptr noundef @.str.2)
  %42 = load ptr, ptr %17, align 8
  %43 = getelementptr inbounds ptr, ptr %42, i64 42
  %44 = load ptr, ptr %43, align 8
  call void %44(ptr dead_on_unwind writable sret(%"class.std::__cxx11::basic_string") align 8 %15, ptr noundef nonnull align 8 dereferenceable(64) %17)
  %45 = load i32, ptr %8, align 4
  %46 = getelementptr inbounds nuw { ptr, i64 }, ptr %14, i32 0, i32 0
  %47 = load ptr, ptr %46, align 8
  %48 = getelementptr inbounds nuw { ptr, i64 }, ptr %14, i32 0, i32 1
  %49 = load i64, ptr %48, align 8
  call void @_ZN4llvm3pdb15dumpSymbolFieldINSt7__cxx1112basic_stringIcSt11char_traitsIcESaIcEEEEEvRNS_11raw_ostreamENS_9StringRefET_i(ptr noundef nonnull align 8 dereferenceable(48) %41, ptr %47, i64 %49, ptr noundef %15, i32 noundef %45)
  call void @_ZNSt7__cxx1112basic_stringIcSt11char_traitsIcESaIcEED1Ev(ptr noundef nonnull align 8 dereferenceable(32) %15) #5
  %50 = load ptr, ptr %7, align 8
  call void @_ZN4llvm9StringRefC2EPKc(ptr noundef nonnull align 8 dereferenceable(16) %16, ptr noundef @.str.3)
  %51 = load ptr, ptr %17, align 8
  %52 = getelementptr inbounds ptr, ptr %51, i64 104
  %53 = load ptr, ptr %52, align 8
  %54 = call noundef zeroext i1 %53(ptr noundef nonnull align 8 dereferenceable(64) %17)
  %55 = load i32, ptr %8, align 4
  %56 = getelementptr inbounds nuw { ptr, i64 }, ptr %16, i32 0, i32 0
  %57 = load ptr, ptr %56, align 8
  %58 = getelementptr inbounds nuw { ptr, i64 }, ptr %16, i32 0, i32 1
  %59 = load i64, ptr %58, align 8
  call void @_ZN4llvm3pdb15dumpSymbolFieldIbEEvRNS_11raw_ostreamENS_9StringRefET_i(ptr noundef nonnull align 8 dereferenceable(48) %50, ptr %57, i64 %59, i1 noundef zeroext %54, i32 noundef %55)
  ret void
}