; Function Attrs: mustprogress nounwind uwtable
define dso_local void @_ZNK4llvm3pdb21NativeCompilandSymbol4dumpERNS_11raw_ostreamEiNS0_16PdbSymbolIdFieldES4_(ptr noundef nonnull align 8 dereferenceable(64) %0, ptr noundef nonnull align 8 dereferenceable(48) %1, i32 noundef %2, i32 noundef %3, i32 noundef %4) unnamed_addr #0 align 2 {
  %6 = alloca %"class.std::__cxx11::basic_string", align 8
  %7 = alloca %"class.std::__cxx11::basic_string", align 8
  tail call void @_ZNK4llvm3pdb15NativeRawSymbol4dumpERNS_11raw_ostreamEiNS0_16PdbSymbolIdFieldES4_(ptr noundef nonnull align 8 dereferenceable(24) %0, ptr noundef nonnull align 8 dereferenceable(48) %1, i32 noundef %2, i32 noundef %3, i32 noundef %4) #7
  %8 = getelementptr inbounds nuw i8, ptr %0, i64 8
  %9 = load ptr, ptr %8, align 8
  tail call void @_ZN4llvm3pdb17dumpSymbolIdFieldERNS_11raw_ostreamENS_9StringRefEjiRKNS0_11IPDBSessionENS0_16PdbSymbolIdFieldES7_S7_(ptr noundef nonnull align 8 dereferenceable(48) %1, ptr nonnull @.str, i64 15, i32 noundef 0, i32 noundef %2, ptr noundef nonnull align 8 dereferenceable(8) %9, i32 noundef 2, i32 noundef %3, i32 noundef %4) #7
  %10 = load ptr, ptr %0, align 8
  %11 = getelementptr inbounds i8, ptr %10, i64 280
  %12 = load ptr, ptr %11, align 8
  call void %12(ptr dead_on_unwind nonnull writable sret(%"class.std::__cxx11::basic_string") align 8 %6, ptr noundef nonnull align 8 dereferenceable(64) %0) #7
  call void @_ZN4llvm3pdb15dumpSymbolFieldINSt7__cxx1112basic_stringIcSt11char_traitsIcESaIcEEEEEvRNS_11raw_ostreamENS_9StringRefET_i(ptr noundef nonnull align 8 dereferenceable(48) %1, ptr nonnull @.str.1, i64 11, ptr noundef nonnull %6, i32 noundef %2)
  call void @_ZNSt7__cxx1112basic_stringIcSt11char_traitsIcESaIcEED1Ev(ptr noundef nonnull align 8 dereferenceable(32) %6) #7
  %13 = load ptr, ptr %0, align 8
  %14 = getelementptr inbounds i8, ptr %13, i64 336
  %15 = load ptr, ptr %14, align 8
  call void %15(ptr dead_on_unwind nonnull writable sret(%"class.std::__cxx11::basic_string") align 8 %7, ptr noundef nonnull align 8 dereferenceable(64) %0) #7
  call void @_ZN4llvm3pdb15dumpSymbolFieldINSt7__cxx1112basic_stringIcSt11char_traitsIcESaIcEEEEEvRNS_11raw_ostreamENS_9StringRefET_i(ptr noundef nonnull align 8 dereferenceable(48) %1, ptr nonnull @.str.2, i64 4, ptr noundef nonnull %7, i32 noundef %2)
  call void @_ZNSt7__cxx1112basic_stringIcSt11char_traitsIcESaIcEED1Ev(ptr noundef nonnull align 8 dereferenceable(32) %7) #7
  %16 = load ptr, ptr %0, align 8
  %17 = getelementptr inbounds i8, ptr %16, i64 832
  %18 = load ptr, ptr %17, align 8
  %19 = call noundef zeroext i1 %18(ptr noundef nonnull align 8 dereferenceable(64) %0) #7
  call void @_ZN4llvm3pdb15dumpSymbolFieldIbEEvRNS_11raw_ostreamENS_9StringRefET_i(ptr noundef nonnull align 8 dereferenceable(48) %1, ptr nonnull @.str.3, i64 22, i1 noundef zeroext %19, i32 noundef %2)
  ret void
}